; Function Attrs: null_pointer_is_valid sspstrong uwtable
define internal fastcc void @sharkd_json_result_prologue(i32 noundef %0) unnamed_addr #0 {
  tail call void @json_dumper_begin_object(ptr noundef nonnull @dumper)
  tail call void @json_dumper_set_member_name(ptr noundef nonnull @dumper, ptr noundef nonnull @.str.8)
  tail call void @json_dumper_value_string(ptr noundef nonnull @dumper, ptr noundef nonnull @.str.9)
  tail call void (ptr, ptr, ...) @sharkd_json_value_anyf(ptr noundef nonnull @.str.10, ptr noundef nonnull @.str.5, i32 noundef %0)
  tail call void @json_dumper_set_member_name(ptr noundef nonnull @dumper, ptr noundef nonnull @.str.122)
  tail call void @json_dumper_begin_object(ptr noundef nonnull @dumper)
  ret void
}